; Function Attrs: mustprogress uwtable
define hidden void @_ZN4cvc58internal12TheoryEngine13ppStaticLearnENS0_12NodeTemplateILb0EEERNS0_11NodeBuilderE(ptr nocapture noundef nonnull align 8 dereferenceable(1448) %this, ptr nocapture noundef readonly %in, ptr noundef nonnull align 8 dereferenceable(116) %learned) local_unnamed_addr #3 align 2 personality ptr @__gxx_personality_v0 {
entry:
  %agg.tmp = alloca %"class.cvc5::internal::NodeTemplate.799", align 8
  %agg.tmp3 = alloca %"class.cvc5::internal::NodeTemplate.799", align 8
  %agg.tmp9 = alloca %"class.cvc5::internal::NodeTemplate.799", align 8
  %d_interrupted = getelementptr inbounds i8, ptr %this, i64 1272
  store i8 0, ptr %d_interrupted, align 8
  %arrayidx.i = getelementptr inbounds i8, ptr %this, i64 40
  %0 = load ptr, ptr %arrayidx.i, align 8
  %1 = load ptr, ptr %in, align 8
  store ptr %1, ptr %agg.tmp, align 8
  %vtable = load ptr, ptr %0, align 8
  %vfn = getelementptr inbounds i8, ptr %vtable, i64 200
  %2 = load ptr, ptr %vfn, align 8
  call void %2(ptr noundef nonnull align 8 dereferenceable(408) %0, ptr noundef nonnull %agg.tmp, ptr noundef nonnull align 8 dereferenceable(116) %learned)
  %arrayidx.i5 = getelementptr inbounds i8, ptr %this, i64 48
  %3 = load ptr, ptr %arrayidx.i5, align 8
  %4 = load ptr, ptr %in, align 8
  store ptr %4, ptr %agg.tmp3, align 8
  %vtable4 = load ptr, ptr %3, align 8
  %vfn5 = getelementptr inbounds i8, ptr %vtable4, i64 200
  %5 = load ptr, ptr %vfn5, align 8
  call void %5(ptr noundef nonnull align 8 dereferenceable(408) %3, ptr noundef nonnull %agg.tmp3, ptr noundef nonnull align 8 dereferenceable(116) %learned)
  %arrayidx.i7 = getelementptr inbounds i8, ptr %this, i64 56
  %6 = load ptr, ptr %arrayidx.i7, align 8
  %7 = load ptr, ptr %in, align 8
  store ptr %7, ptr %agg.tmp9, align 8
  %vtable10 = load ptr, ptr %6, align 8
  %vfn11 = getelementptr inbounds i8, ptr %vtable10, i64 200
  %8 = load ptr, ptr %vfn11, align 8
  call void %8(ptr noundef nonnull align 8 dereferenceable(408) %6, ptr noundef nonnull %agg.tmp9, ptr noundef nonnull align 8 dereferenceable(116) %learned)
  ret void
}